target datalayout = "e-m:e-p270:32:32-p271:32:32-p272:64:64-i64:64-i128:128-f80:128-n8:16:32:64-S128"
target triple = "x86_64-unknown-linux-gnu"

%"class.mold::LittleEndian" = type { [4 x i8] }
%"struct.mold::elf::ElfRel" = type { %"class.mold::LittleEndian", i8, %"class.mold::LittleEndian.3" }
%"class.mold::LittleEndian.3" = type { [3 x i8] }
%"class.mold::LittleEndian.4" = type { [4 x i8] }
%"class.mold::LittleEndian.5" = type { [2 x i8] }

; Function Attrs: mustprogress nounwind
define linkonce_odr dso_local noundef i32 @_ZNK4mold12LittleEndianIjLi4EEcvjEv(ptr noundef nonnull align 1 dereferenceable(4) %this) #4 comdat align 2 {
entry:
  %this.addr = alloca ptr, align 8
  %x = alloca i32, align 4
  store ptr %this, ptr %this.addr, align 8
  %this1 = load ptr, ptr %this.addr, align 8
  %val = getelementptr inbounds %"class.mold::LittleEndian", ptr %this1, i32 0, i32 0
  %arraydecay = getelementptr inbounds [4 x i8], ptr %val, i64 0, i64 0
  call void @llvm.memcpy.p0.p0.i64(ptr align 4 %x, ptr align 1 %arraydecay, i64 4, i1 false)
  %0 = load i32, ptr %x, align 4
  ret i32 %0
}

; Function Attrs: mustprogress nounwind
define linkonce_odr dso_local noundef i64 @_ZN4mold4bitsEmmm(i64 noundef %val, i64 noundef %hi, i64 noundef %lo) #4 comdat {
entry:
  %val.addr = alloca i64, align 8
  %hi.addr = alloca i64, align 8
  %lo.addr = alloca i64, align 8
  store i64 %val, ptr %val.addr, align 8
  store i64 %hi, ptr %hi.addr, align 8
  store i64 %lo, ptr %lo.addr, align 8
  %0 = load i64, ptr %val.addr, align 8
  %1 = load i64, ptr %lo.addr, align 8
  %shr = lshr i64 %0, %1
  %2 = load i64, ptr %hi.addr, align 8
  %3 = load i64, ptr %lo.addr, align 8
  %sub = sub i64 %2, %3
  %add = add i64 %sub, 1
  %shl = shl i64 1, %add
  %sub1 = sub nsw i64 %shl, 1
  %and = and i64 %shr, %sub1
  ret i64 %and
}

; Function Attrs: mustprogress nounwind
define linkonce_odr dso_local noundef i64 @_ZN4mold3bitEml(i64 noundef %val, i64 noundef %pos) #4 comdat {
entry:
  %val.addr = alloca i64, align 8
  %pos.addr = alloca i64, align 8
  store i64 %val, ptr %val.addr, align 8
  store i64 %pos, ptr %pos.addr, align 8
  %0 = load i64, ptr %val.addr, align 8
  %1 = load i64, ptr %pos.addr, align 8
  %shr = lshr i64 %0, %1
  %and = and i64 %shr, 1
  ret i64 %and
}

; Function Attrs: mustprogress nounwind
define linkonce_odr dso_local noundef i64 @_ZN4mold11sign_extendEml(i64 noundef %val, i64 noundef %size) #4 comdat {
entry:
  %val.addr = alloca i64, align 8
  %size.addr = alloca i64, align 8
  store i64 %val, ptr %val.addr, align 8
  store i64 %size, ptr %size.addr, align 8
  %0 = load i64, ptr %val.addr, align 8
  %1 = load i64, ptr %size.addr, align 8
  %sub = sub nsw i64 63, %1
  %shl = shl i64 %0, %sub
  %2 = load i64, ptr %size.addr, align 8
  %sub1 = sub nsw i64 63, %2
  %shr = ashr i64 %shl, %sub1
  ret i64 %shr
}

; Function Attrs: mustprogress nounwind
define linkonce_odr dso_local noundef zeroext i16 @_ZNK4mold12LittleEndianItLi2EEcvtEv(ptr noundef nonnull align 1 dereferenceable(2) %this) #4 comdat align 2 {
entry:
  %this.addr = alloca ptr, align 8
  %x = alloca i16, align 2
  store ptr %this, ptr %this.addr, align 8
  %this1 = load ptr, ptr %this.addr, align 8
  %val = getelementptr inbounds %"class.mold::LittleEndian.5", ptr %this1, i32 0, i32 0
  %arraydecay = getelementptr inbounds [2 x i8], ptr %val, i64 0, i64 0
  call void @llvm.memcpy.p0.p0.i64(ptr align 2 %x, ptr align 1 %arraydecay, i64 2, i1 false)
  %0 = load i16, ptr %x, align 2
  ret i16 %0
}

; Function Attrs: mustprogress nounwind
define linkonce_odr dso_local noundef i32 @_ZNK4mold12LittleEndianIiLi4EEcviEv(ptr noundef nonnull align 1 dereferenceable(4) %this) #4 comdat align 2 {
entry:
  %this.addr = alloca ptr, align 8
  %x = alloca i32, align 4
  store ptr %this, ptr %this.addr, align 8
  %this1 = load ptr, ptr %this.addr, align 8
  %val = getelementptr inbounds %"class.mold::LittleEndian.4", ptr %this1, i32 0, i32 0
  %arraydecay = getelementptr inbounds [4 x i8], ptr %val, i64 0, i64 0
  call void @llvm.memcpy.p0.p0.i64(ptr align 4 %x, ptr align 1 %arraydecay, i64 4, i1 false)
  %0 = load i32, ptr %x, align 4
  ret i32 %0
}

; Function Attrs: mustprogress nounwind
define dso_local noundef i64 @_ZN4mold3elf10get_addendINS0_5ARM32EEElPhRKNS0_6ElfRelIT_EE(ptr noundef %loc, ptr noundef nonnull align 1 dereferenceable(8) %rel) #4 {
entry:
  %retval = alloca i64, align 8
  %loc.addr = alloca ptr, align 8
  %rel.addr = alloca ptr, align 8
  %S = alloca i32, align 4
  %J1 = alloca i32, align 4
  %J2 = alloca i32, align 4
  %I1 = alloca i32, align 4
  %I2 = alloca i32, align 4
  %imm10 = alloca i32, align 4
  %imm11 = alloca i32, align 4
  %val = alloca i32, align 4
  %imm12 = alloca i32, align 4
  %imm4 = alloca i32, align 4
  %imm467 = alloca i32, align 4
  %i = alloca i32, align 4
  %imm3 = alloca i32, align 4
  %imm8 = alloca i32, align 4
  %val86 = alloca i32, align 4
  store ptr %loc, ptr %loc.addr, align 8
  store ptr %rel, ptr %rel.addr, align 8
  %0 = load ptr, ptr %rel.addr, align 8
  %r_type = getelementptr inbounds %"struct.mold::elf::ElfRel", ptr %0, i32 0, i32 1
  %1 = load i8, ptr %r_type, align 1
  %conv = zext i8 %1 to i32
  switch i32 %conv, label %sw.default [
    i32 2, label %sw.bb
    i32 3, label %sw.bb
    i32 38, label %sw.bb
    i32 25, label %sw.bb
    i32 24, label %sw.bb
    i32 96, label %sw.bb
    i32 26, label %sw.bb
    i32 104, label %sw.bb
    i32 105, label %sw.bb
    i32 106, label %sw.bb
    i32 107, label %sw.bb
    i32 108, label %sw.bb
    i32 90, label %sw.bb
    i32 41, label %sw.bb
    i32 102, label %sw.bb2
    i32 10, label %sw.bb6
    i32 30, label %sw.bb6
    i32 93, label %sw.bb6
    i32 28, label %sw.bb44
    i32 29, label %sw.bb44
    i32 27, label %sw.bb44
    i32 91, label %sw.bb44
    i32 45, label %sw.bb49
    i32 43, label %sw.bb49
    i32 46, label %sw.bb49
    i32 44, label %sw.bb49
    i32 42, label %sw.bb62
    i32 49, label %sw.bb66
    i32 47, label %sw.bb66
    i32 50, label %sw.bb66
    i32 48, label %sw.bb66
  ]

sw.bb:                                            ; preds = %entry, %entry, %entry, %entry, %entry, %entry, %entry, %entry, %entry, %entry, %entry, %entry, %entry, %entry
  %2 = load ptr, ptr %loc.addr, align 8
  %call = call noundef i32 @_ZNK4mold12LittleEndianIiLi4EEcviEv(ptr noundef nonnull align 1 dereferenceable(4) %2)
  %conv1 = sext i32 %call to i64
  store i64 %conv1, ptr %retval, align 8
  br label %return

sw.bb2:                                           ; preds = %entry
  %3 = load ptr, ptr %loc.addr, align 8
  %call3 = call noundef zeroext i16 @_ZNK4mold12LittleEndianItLi2EEcvtEv(ptr noundef nonnull align 1 dereferenceable(2) %3)
  %conv4 = zext i16 %call3 to i64
  %call5 = call noundef i64 @_ZN4mold11sign_extendEml(i64 noundef %conv4, i64 noundef 10)
  %shl = shl i64 %call5, 1
  store i64 %shl, ptr %retval, align 8
  br label %return

sw.bb6:                                           ; preds = %entry, %entry, %entry
  %4 = load ptr, ptr %loc.addr, align 8
  %call7 = call noundef zeroext i16 @_ZNK4mold12LittleEndianItLi2EEcvtEv(ptr noundef nonnull align 1 dereferenceable(2) %4)
  %conv8 = zext i16 %call7 to i64
  %call9 = call noundef i64 @_ZN4mold3bitEml(i64 noundef %conv8, i64 noundef 10)
  %conv10 = trunc i64 %call9 to i32
  store i32 %conv10, ptr %S, align 4
  %5 = load ptr, ptr %loc.addr, align 8
  %add.ptr = getelementptr inbounds i8, ptr %5, i64 2
  %call11 = call noundef zeroext i16 @_ZNK4mold12LittleEndianItLi2EEcvtEv(ptr noundef nonnull align 1 dereferenceable(2) %add.ptr)
  %conv12 = zext i16 %call11 to i64
  %call13 = call noundef i64 @_ZN4mold3bitEml(i64 noundef %conv12, i64 noundef 13)
  %conv14 = trunc i64 %call13 to i32
  store i32 %conv14, ptr %J1, align 4
  %6 = load ptr, ptr %loc.addr, align 8
  %add.ptr15 = getelementptr inbounds i8, ptr %6, i64 2
  %call16 = call noundef zeroext i16 @_ZNK4mold12LittleEndianItLi2EEcvtEv(ptr noundef nonnull align 1 dereferenceable(2) %add.ptr15)
  %conv17 = zext i16 %call16 to i64
  %call18 = call noundef i64 @_ZN4mold3bitEml(i64 noundef %conv17, i64 noundef 11)
  %conv19 = trunc i64 %call18 to i32
  store i32 %conv19, ptr %J2, align 4
  %7 = load i32, ptr %J1, align 4
  %8 = load i32, ptr %S, align 4
  %xor = xor i32 %7, %8
  %tobool = icmp ne i32 %xor, 0
  %lnot = xor i1 %tobool, true
  %conv20 = zext i1 %lnot to i32
  store i32 %conv20, ptr %I1, align 4
  %9 = load i32, ptr %J2, align 4
  %10 = load i32, ptr %S, align 4
  %xor21 = xor i32 %9, %10
  %tobool22 = icmp ne i32 %xor21, 0
  %lnot23 = xor i1 %tobool22, true
  %conv24 = zext i1 %lnot23 to i32
  store i32 %conv24, ptr %I2, align 4
  %11 = load ptr, ptr %loc.addr, align 8
  %call25 = call noundef zeroext i16 @_ZNK4mold12LittleEndianItLi2EEcvtEv(ptr noundef nonnull align 1 dereferenceable(2) %11)
  %conv26 = zext i16 %call25 to i64
  %call27 = call noundef i64 @_ZN4mold4bitsEmmm(i64 noundef %conv26, i64 noundef 9, i64 noundef 0)
  %conv28 = trunc i64 %call27 to i32
  store i32 %conv28, ptr %imm10, align 4
  %12 = load ptr, ptr %loc.addr, align 8
  %add.ptr29 = getelementptr inbounds i8, ptr %12, i64 2
  %call30 = call noundef zeroext i16 @_ZNK4mold12LittleEndianItLi2EEcvtEv(ptr noundef nonnull align 1 dereferenceable(2) %add.ptr29)
  %conv31 = zext i16 %call30 to i64
  %call32 = call noundef i64 @_ZN4mold4bitsEmmm(i64 noundef %conv31, i64 noundef 10, i64 noundef 0)
  %conv33 = trunc i64 %call32 to i32
  store i32 %conv33, ptr %imm11, align 4
  %13 = load i32, ptr %S, align 4
  %shl34 = shl i32 %13, 24
  %14 = load i32, ptr %I1, align 4
  %shl35 = shl i32 %14, 23
  %or = or i32 %shl34, %shl35
  %15 = load i32, ptr %I2, align 4
  %shl36 = shl i32 %15, 22
  %or37 = or i32 %or, %shl36
  %16 = load i32, ptr %imm10, align 4
  %shl38 = shl i32 %16, 12
  %or39 = or i32 %or37, %shl38
  %17 = load i32, ptr %imm11, align 4
  %shl40 = shl i32 %17, 1
  %or41 = or i32 %or39, %shl40
  store i32 %or41, ptr %val, align 4
  %18 = load i32, ptr %val, align 4
  %conv42 = zext i32 %18 to i64
  %call43 = call noundef i64 @_ZN4mold11sign_extendEml(i64 noundef %conv42, i64 noundef 24)
  store i64 %call43, ptr %retval, align 8
  br label %return

sw.bb44:                                          ; preds = %entry, %entry, %entry, %entry
  %19 = load ptr, ptr %loc.addr, align 8
  %call45 = call noundef i32 @_ZNK4mold12LittleEndianIjLi4EEcvjEv(ptr noundef nonnull align 1 dereferenceable(4) %19)
  %conv46 = zext i32 %call45 to i64
  %call47 = call noundef i64 @_ZN4mold11sign_extendEml(i64 noundef %conv46, i64 noundef 23)
  %shl48 = shl i64 %call47, 2
  store i64 %shl48, ptr %retval, align 8
  br label %return

sw.bb49:                                          ; preds = %entry, %entry, %entry, %entry
  %20 = load ptr, ptr %loc.addr, align 8
  %call50 = call noundef i32 @_ZNK4mold12LittleEndianIjLi4EEcvjEv(ptr noundef nonnull align 1 dereferenceable(4) %20)
  %conv51 = zext i32 %call50 to i64
  %call52 = call noundef i64 @_ZN4mold4bitsEmmm(i64 noundef %conv51, i64 noundef 11, i64 noundef 0)
  %conv53 = trunc i64 %call52 to i32
  store i32 %conv53, ptr %imm12, align 4
  %21 = load ptr, ptr %loc.addr, align 8
  %call54 = call noundef i32 @_ZNK4mold12LittleEndianIjLi4EEcvjEv(ptr noundef nonnull align 1 dereferenceable(4) %21)
  %conv55 = zext i32 %call54 to i64
  %call56 = call noundef i64 @_ZN4mold4bitsEmmm(i64 noundef %conv55, i64 noundef 19, i64 noundef 16)
  %conv57 = trunc i64 %call56 to i32
  store i32 %conv57, ptr %imm4, align 4
  %22 = load i32, ptr %imm4, align 4
  %shl58 = shl i32 %22, 12
  %23 = load i32, ptr %imm12, align 4
  %or59 = or i32 %shl58, %23
  %conv60 = zext i32 %or59 to i64
  %call61 = call noundef i64 @_ZN4mold11sign_extendEml(i64 noundef %conv60, i64 noundef 15)
  store i64 %call61, ptr %retval, align 8
  br label %return

sw.bb62:                                          ; preds = %entry
  %24 = load ptr, ptr %loc.addr, align 8
  %call63 = call noundef i32 @_ZNK4mold12LittleEndianIjLi4EEcvjEv(ptr noundef nonnull align 1 dereferenceable(4) %24)
  %conv64 = zext i32 %call63 to i64
  %call65 = call noundef i64 @_ZN4mold11sign_extendEml(i64 noundef %conv64, i64 noundef 30)
  store i64 %call65, ptr %retval, align 8
  br label %return

sw.bb66:                                          ; preds = %entry, %entry, %entry, %entry
  %25 = load ptr, ptr %loc.addr, align 8
  %call68 = call noundef zeroext i16 @_ZNK4mold12LittleEndianItLi2EEcvtEv(ptr noundef nonnull align 1 dereferenceable(2) %25)
  %conv69 = zext i16 %call68 to i64
  %call70 = call noundef i64 @_ZN4mold4bitsEmmm(i64 noundef %conv69, i64 noundef 3, i64 noundef 0)
  %conv71 = trunc i64 %call70 to i32
  store i32 %conv71, ptr %imm467, align 4
  %26 = load ptr, ptr %loc.addr, align 8
  %call72 = call noundef zeroext i16 @_ZNK4mold12LittleEndianItLi2EEcvtEv(ptr noundef nonnull align 1 dereferenceable(2) %26)
  %conv73 = zext i16 %call72 to i64
  %call74 = call noundef i64 @_ZN4mold3bitEml(i64 noundef %conv73, i64 noundef 10)
  %conv75 = trunc i64 %call74 to i32
  store i32 %conv75, ptr %i, align 4
  %27 = load ptr, ptr %loc.addr, align 8
  %add.ptr76 = getelementptr inbounds i8, ptr %27, i64 2
  %call77 = call noundef zeroext i16 @_ZNK4mold12LittleEndianItLi2EEcvtEv(ptr noundef nonnull align 1 dereferenceable(2) %add.ptr76)
  %conv78 = zext i16 %call77 to i64
  %call79 = call noundef i64 @_ZN4mold4bitsEmmm(i64 noundef %conv78, i64 noundef 14, i64 noundef 12)
  %conv80 = trunc i64 %call79 to i32
  store i32 %conv80, ptr %imm3, align 4
  %28 = load ptr, ptr %loc.addr, align 8
  %add.ptr81 = getelementptr inbounds i8, ptr %28, i64 2
  %call82 = call noundef zeroext i16 @_ZNK4mold12LittleEndianItLi2EEcvtEv(ptr noundef nonnull align 1 dereferenceable(2) %add.ptr81)
  %conv83 = zext i16 %call82 to i64
  %call84 = call noundef i64 @_ZN4mold4bitsEmmm(i64 noundef %conv83, i64 noundef 7, i64 noundef 0)
  %conv85 = trunc i64 %call84 to i32
  store i32 %conv85, ptr %imm8, align 4
  %29 = load i32, ptr %imm467, align 4
  %shl87 = shl i32 %29, 12
  %30 = load i32, ptr %i, align 4
  %shl88 = shl i32 %30, 11
  %or89 = or i32 %shl87, %shl88
  %31 = load i32, ptr %imm3, align 4
  %shl90 = shl i32 %31, 8
  %or91 = or i32 %or89, %shl90
  %32 = load i32, ptr %imm8, align 4
  %or92 = or i32 %or91, %32
  store i32 %or92, ptr %val86, align 4
  %33 = load i32, ptr %val86, align 4
  %conv93 = zext i32 %33 to i64
  %call94 = call noundef i64 @_ZN4mold11sign_extendEml(i64 noundef %conv93, i64 noundef 15)
  store i64 %call94, ptr %retval, align 8
  br label %return

sw.default:                                       ; preds = %entry
  store i64 0, ptr %retval, align 8
  br label %return

return:                                           ; preds = %sw.default, %sw.bb66, %sw.bb62, %sw.bb49, %sw.bb44, %sw.bb6, %sw.bb2, %sw.bb
  %34 = load i64, ptr %retval, align 8
  ret i64 %34
}