; Function Attrs: mustprogress nofree norecurse nosync nounwind willreturn memory(argmem: read)
define dso_local noundef i64 @_ZN4mold3elf10get_addendINS0_5ARM32EEElPhRKNS0_6ElfRelIT_EE(ptr nocapture noundef readonly %loc, ptr nocapture noundef nonnull readonly align 1 dereferenceable(8) %rel) local_unnamed_addr #5 {
entry:
  %r_type = getelementptr inbounds i8, ptr %rel, i64 4
  %0 = load i8, ptr %r_type, align 1
  switch i8 %0, label %return [
    i8 2, label %sw.bb
    i8 3, label %sw.bb
    i8 38, label %sw.bb
    i8 25, label %sw.bb
    i8 24, label %sw.bb
    i8 96, label %sw.bb
    i8 26, label %sw.bb
    i8 104, label %sw.bb
    i8 105, label %sw.bb
    i8 106, label %sw.bb
    i8 107, label %sw.bb
    i8 108, label %sw.bb
    i8 90, label %sw.bb
    i8 41, label %sw.bb
    i8 102, label %sw.bb2
    i8 10, label %sw.bb6
    i8 30, label %sw.bb6
    i8 93, label %sw.bb6
    i8 28, label %sw.bb44
    i8 29, label %sw.bb44
    i8 27, label %sw.bb44
    i8 91, label %sw.bb44
    i8 45, label %sw.bb49
    i8 43, label %sw.bb49
    i8 46, label %sw.bb49
    i8 44, label %sw.bb49
    i8 42, label %sw.bb62
    i8 49, label %sw.bb66
    i8 47, label %sw.bb66
    i8 50, label %sw.bb66
    i8 48, label %sw.bb66
  ]

sw.bb:                                            ; preds = %entry, %entry, %entry, %entry, %entry, %entry, %entry, %entry, %entry, %entry, %entry, %entry, %entry, %entry
  %x.0.copyload.i = load i32, ptr %loc, align 1
  %conv1 = sext i32 %x.0.copyload.i to i64
  br label %return

sw.bb2:                                           ; preds = %entry
  %x.0.copyload.i19 = load i16, ptr %loc, align 1
  %conv4 = zext i16 %x.0.copyload.i19 to i64
  %shl.i = shl i64 %conv4, 53
  %shl = ashr exact i64 %shl.i, 52
  br label %return

sw.bb6:                                           ; preds = %entry, %entry, %entry
  %x.0.copyload.i20 = load i16, ptr %loc, align 1
  %conv8 = zext i16 %x.0.copyload.i20 to i64
  %shr.i21 = lshr i64 %conv8, 10
  %add.ptr = getelementptr inbounds i8, ptr %loc, i64 2
  %x.0.copyload.i22 = load i16, ptr %add.ptr, align 1
  %conv12 = zext i16 %x.0.copyload.i22 to i64
  %shr.i23 = lshr i64 %conv12, 13
  %shr.i26 = lshr i64 %conv12, 11
  %and.i2459 = xor i64 %shr.i23, %shr.i21
  %and.i2760 = xor i64 %shr.i26, %shr.i21
  %and.i = shl i64 %shr.i21, 63
  %xor17 = shl i64 %and.i2459, 62
  %1 = and i64 %xor17, 4611686018427387904
  %2 = or disjoint i64 %1, %and.i
  %xor2118 = shl i64 %and.i2760, 61
  %3 = and i64 %xor2118, 2305843009213693952
  %4 = or disjoint i64 %2, %3
  %and.i29 = shl i64 %conv8, 51
  %shl38 = and i64 %and.i29, 2303591209400008704
  %5 = or disjoint i64 %4, %shl38
  %and.i31 = shl nuw nsw i64 %conv12, 40
  %shl40 = and i64 %and.i31, 2250700302057472
  %6 = or disjoint i64 %5, %shl40
  %conv42 = ashr exact i64 %6, 39
  %shr.i33 = xor i64 %conv42, 12582912
  br label %return

sw.bb44:                                          ; preds = %entry, %entry, %entry, %entry
  %x.0.copyload.i34 = load i32, ptr %loc, align 1
  %conv46 = zext i32 %x.0.copyload.i34 to i64
  %shl.i35 = shl i64 %conv46, 40
  %shl48 = ashr exact i64 %shl.i35, 38
  br label %return

sw.bb49:                                          ; preds = %entry, %entry, %entry, %entry
  %x.0.copyload.i37 = load i32, ptr %loc, align 1
  %conv51 = zext i32 %x.0.copyload.i37 to i64
  %and.i38 = and i64 %conv51, 4095
  %7 = lshr i64 %conv51, 4
  %shl58 = and i64 %7, 61440
  %or59 = or disjoint i64 %shl58, %and.i38
  %shl.i42 = shl nuw i64 %or59, 48
  %shr.i43 = ashr exact i64 %shl.i42, 48
  br label %return

sw.bb62:                                          ; preds = %entry
  %x.0.copyload.i44 = load i32, ptr %loc, align 1
  %conv64 = zext i32 %x.0.copyload.i44 to i64
  %shl.i45 = shl i64 %conv64, 33
  %shr.i46 = ashr exact i64 %shl.i45, 33
  br label %return

sw.bb66:                                          ; preds = %entry, %entry, %entry, %entry
  %x.0.copyload.i47 = load i16, ptr %loc, align 1
  %conv69 = zext i16 %x.0.copyload.i47 to i64
  %add.ptr76 = getelementptr inbounds i8, ptr %loc, i64 2
  %x.0.copyload.i52 = load i16, ptr %add.ptr76, align 1
  %conv78 = zext i16 %x.0.copyload.i52 to i64
  %and.i56 = and i64 %conv78, 255
  %and.i48 = shl nuw nsw i64 %conv69, 12
  %shl87 = and i64 %and.i48, 61440
  %8 = shl nuw nsw i64 %conv69, 1
  %shl88 = and i64 %8, 2048
  %9 = lshr i64 %conv78, 4
  %shl90 = and i64 %9, 1792
  %or91 = or disjoint i64 %shl87, %shl88
  %or89 = or disjoint i64 %or91, %and.i56
  %or92 = or disjoint i64 %or89, %shl90
  %shl.i57 = shl nuw i64 %or92, 48
  %shr.i58 = ashr exact i64 %shl.i57, 48
  br label %return

return:                                           ; preds = %entry, %sw.bb66, %sw.bb62, %sw.bb49, %sw.bb44, %sw.bb6, %sw.bb2, %sw.bb
  %retval.0 = phi i64 [ %shr.i58, %sw.bb66 ], [ %shr.i46, %sw.bb62 ], [ %shr.i43, %sw.bb49 ], [ %shl48, %sw.bb44 ], [ %shr.i33, %sw.bb6 ], [ %shl, %sw.bb2 ], [ %conv1, %sw.bb ], [ 0, %entry ]
  ret i64 %retval.0
}